; Function Attrs: mustprogress nofree norecurse nosync nounwind memory(readwrite, inaccessiblemem: none) uwtable
define hidden void @_ZN13Domain_Filter5diffxERKN2cv3MatERS1_(ptr noundef nonnull readnone align 8 captures(none) dereferenceable(768) %0, ptr noundef nonnull readonly align 8 captures(none) dereferenceable(96) %1, ptr noundef nonnull readonly align 8 captures(none) dereferenceable(96) %2) local_unnamed_addr #3 align 2 {
  %4 = load i32, ptr %1, align 8, !tbaa !3
  %5 = lshr i32 %4, 3
  %6 = and i32 %5, 511
  %7 = add nuw nsw i32 %6, 1
  %8 = getelementptr inbounds nuw i8, ptr %1, i64 64
  %9 = load ptr, ptr %8, align 8, !tbaa !16
  %10 = load i32, ptr %9, align 4, !tbaa !17
  %11 = icmp sgt i32 %10, 0
  br i1 %11, label %.preheader32.lr.ph, label %._crit_edge36

.preheader32.lr.ph:                               ; preds = %3
  %12 = getelementptr inbounds nuw i8, ptr %9, i64 4
  %13 = load i32, ptr %12, align 4, !tbaa !17
  %14 = icmp sgt i32 %13, 1
  %15 = getelementptr inbounds nuw i8, ptr %1, i64 16
  %16 = load ptr, ptr %15, align 8
  %17 = getelementptr inbounds nuw i8, ptr %2, i64 16
  %18 = load ptr, ptr %17, align 8
  br i1 %14, label %.preheader32.lr.ph.split.us, label %._crit_edge36

.preheader32.lr.ph.split.us:                      ; preds = %.preheader32.lr.ph
  %19 = add nsw i32 %13, -1
  %20 = getelementptr inbounds nuw i8, ptr %2, i64 72
  %21 = load ptr, ptr %20, align 8
  %22 = getelementptr inbounds nuw i8, ptr %1, i64 72
  %23 = load ptr, ptr %22, align 8
  %24 = load i64, ptr %23, align 8, !tbaa !18
  %25 = load i64, ptr %21, align 8, !tbaa !18
  %26 = zext nneg i32 %7 to i64
  %wide.trip.count47 = zext nneg i32 %10 to i64
  %wide.trip.count42 = zext i32 %19 to i64
  br label %.preheader32.us

.preheader32.us:                                  ; preds = %._crit_edge.us, %.preheader32.lr.ph.split.us
  %indvars.iv44 = phi i64 [ %indvars.iv.next45, %._crit_edge.us ], [ 0, %.preheader32.lr.ph.split.us ]
  %27 = mul i64 %24, %indvars.iv44
  %28 = getelementptr inbounds nuw i8, ptr %16, i64 %27
  %29 = mul i64 %25, %indvars.iv44
  %30 = getelementptr inbounds nuw i8, ptr %18, i64 %29
  br label %.preheader.us

31:                                               ; preds = %.preheader.us, %31
  %indvars.iv = phi i64 [ 0, %.preheader.us ], [ %indvars.iv.next, %31 ]
  %gep = getelementptr inbounds nuw float, ptr %invariant.gep, i64 %indvars.iv
  %32 = load float, ptr %gep, align 4, !tbaa !20
  %33 = add nuw nsw i64 %indvars.iv, %40
  %34 = getelementptr inbounds nuw float, ptr %28, i64 %33
  %35 = load float, ptr %34, align 4, !tbaa !20
  %36 = fsub float %32, %35
  %37 = getelementptr inbounds nuw float, ptr %30, i64 %33
  store float %36, ptr %37, align 4, !tbaa !20
  %indvars.iv.next = add nuw nsw i64 %indvars.iv, 1
  %exitcond.not = icmp eq i64 %indvars.iv.next, %26
  br i1 %exitcond.not, label %38, label %31, !llvm.loop !22

38:                                               ; preds = %31
  %exitcond43.not = icmp eq i64 %indvars.iv.next40, %wide.trip.count42
  br i1 %exitcond43.not, label %._crit_edge.us, label %.preheader.us, !llvm.loop !24

.preheader.us:                                    ; preds = %.preheader32.us, %38
  %indvars.iv39 = phi i64 [ 0, %.preheader32.us ], [ %indvars.iv.next40, %38 ]
  %indvars.iv.next40 = add nuw nsw i64 %indvars.iv39, 1
  %39 = mul nuw nsw i64 %indvars.iv.next40, %26
  %40 = mul nuw nsw i64 %indvars.iv39, %26
  %invariant.gep = getelementptr inbounds nuw float, ptr %28, i64 %39
  br label %31

._crit_edge.us:                                   ; preds = %38
  %indvars.iv.next45 = add nuw nsw i64 %indvars.iv44, 1
  %exitcond48.not = icmp eq i64 %indvars.iv.next45, %wide.trip.count47
  br i1 %exitcond48.not, label %._crit_edge36, label %.preheader32.us, !llvm.loop !25

._crit_edge36:                                    ; preds = %._crit_edge.us, %.preheader32.lr.ph, %3
  ret void
}